target datalayout = "e-m:e-p270:32:32-p271:32:32-p272:64:64-i64:64-i128:128-f80:128-n8:16:32:64-S128"
target triple = "x86_64-pc-linux-gnu"

%class.ZThreadLocalData = type { i64, i64, i64, i64, i64, i64, i64, ptr, [2 x %class.ZMarkThreadLocalStacks], ptr }
%class.ZMarkThreadLocalStacks = type { ptr, [16 x ptr] }
%class.Thread = type { %class.ThreadShadow.base, i64, [43 x i64], ptr, ptr, i32, ptr, i64, i64, %class.ThreadLocalAllocBuffer, i64, %class.ThreadHeapSampler, %class.ThreadStatisticalInfo, %class.JfrThreadLocal, ptr, ptr, ptr, ptr, ptr, ptr, i64, i32, i32, ptr, i32, i32, i32, i32, i8, ptr }
%class.ThreadShadow.base = type <{ ptr, ptr, ptr, i32 }>
%class.ThreadLocalAllocBuffer = type <{ ptr, ptr, ptr, ptr, ptr, i64, i64, i64, i64, i32, i32, i32, i32, i64, %class.AdaptiveWeightedAverage, [4 x i8] }>
%class.AdaptiveWeightedAverage = type { float, i32, i32, i8, float }
%class.ThreadHeapSampler = type { i64 }
%class.ThreadStatisticalInfo = type { i64, i64 }
%class.JfrThreadLocal = type <{ ptr, ptr, ptr, ptr, ptr, ptr, ptr, ptr, ptr, ptr, %class.RefCountHandle, i64, i64, i64, i64, i64, i64, i64, i64, i64, i64, i64, i32, i32, i32, i16, i8, i8, i8, i8, i8, [5 x i8] }>
%class.RefCountHandle = type { ptr }

; Function Attrs: mustprogress nounwind uwtable
define linkonce_odr hidden noundef ptr @_ZN6Thread7gc_dataI16ZThreadLocalDataEEPT_v(ptr noundef nonnull align 8 dereferenceable(888) %0) #1 comdat align 2 {
  %2 = alloca ptr, align 8
  store ptr %0, ptr %2, align 8
  %3 = load ptr, ptr %2, align 8
  %4 = getelementptr inbounds %class.Thread, ptr %3, i32 0, i32 2
  ret ptr %4
}

; Function Attrs: mustprogress nounwind uwtable
define linkonce_odr hidden void @_ZN16ZThreadLocalDataC2Ev(ptr noundef nonnull align 8 dereferenceable(344) %0) unnamed_addr #1 comdat align 2 {
  %2 = alloca i64, align 8
  %3 = alloca i8, align 1
  %4 = alloca i64, align 8
  %5 = alloca ptr, align 8
  store ptr %0, ptr %5, align 8
  %6 = load ptr, ptr %5, align 8
  %7 = getelementptr inbounds %class.ZThreadLocalData, ptr %6, i32 0, i32 0
  store i64 0, ptr %7, align 8
  %8 = getelementptr inbounds %class.ZThreadLocalData, ptr %6, i32 0, i32 1
  store i64 0, ptr %8, align 8
  %9 = getelementptr inbounds %class.ZThreadLocalData, ptr %6, i32 0, i32 2
  store i64 0, ptr %9, align 8
  %10 = getelementptr inbounds %class.ZThreadLocalData, ptr %6, i32 0, i32 3
  store i64 0, ptr %10, align 8
  %11 = getelementptr inbounds %class.ZThreadLocalData, ptr %6, i32 0, i32 4
  store i64 0, ptr %11, align 8
  %12 = getelementptr inbounds %class.ZThreadLocalData, ptr %6, i32 0, i32 5
  store i64 0, ptr %12, align 8
  %13 = getelementptr inbounds %class.ZThreadLocalData, ptr %6, i32 0, i32 6
  store i64 0, ptr %13, align 8
  %14 = getelementptr inbounds %class.ZThreadLocalData, ptr %6, i32 0, i32 7
  store i64 832, ptr %4, align 8
  %15 = load i64, ptr %4, align 8
  store i64 %15, ptr %2, align 8
  store i8 5, ptr %3, align 1
  %16 = load i64, ptr %2, align 8
  %17 = load i8, ptr %3, align 1
  %18 = call noundef ptr @_Z12AllocateHeapm8MEMFLAGSN17AllocFailStrategy13AllocFailEnumE(i64 noundef %16, i8 noundef zeroext %17, i32 noundef 0) #6
  call void @_ZN19ZStoreBarrierBufferC1Ev(ptr noundef nonnull align 8 dereferenceable(832) %18)
  store ptr %18, ptr %14, align 8
  %19 = getelementptr inbounds %class.ZThreadLocalData, ptr %6, i32 0, i32 8
  %20 = getelementptr inbounds [2 x %class.ZMarkThreadLocalStacks], ptr %19, i32 0, i32 0
  %21 = getelementptr inbounds %class.ZMarkThreadLocalStacks, ptr %20, i64 2
  br label %22

22:                                               ; preds = %22, %1
  %23 = phi ptr [ %20, %1 ], [ %24, %22 ]
  call void @_ZN22ZMarkThreadLocalStacksC1Ev(ptr noundef nonnull align 8 dereferenceable(136) %23)
  %24 = getelementptr inbounds %class.ZMarkThreadLocalStacks, ptr %23, i64 1
  %25 = icmp eq ptr %24, %21
  br i1 %25, label %26, label %22

26:                                               ; preds = %22
  %27 = getelementptr inbounds %class.ZThreadLocalData, ptr %6, i32 0, i32 9
  store ptr null, ptr %27, align 8
  ret void
}

; Function Attrs: mustprogress nounwind uwtable
define linkonce_odr hidden noundef ptr @_ZN16ZThreadLocalData4dataEP6Thread(ptr noundef %0) #1 comdat align 2 {
  %2 = alloca ptr, align 8
  store ptr %0, ptr %2, align 8
  %3 = load ptr, ptr %2, align 8
  %4 = call noundef ptr @_ZN6Thread7gc_dataI16ZThreadLocalDataEEPT_v(ptr noundef nonnull align 8 dereferenceable(888) %3)
  ret ptr %4
}

; Function Attrs: mustprogress nounwind uwtable
define linkonce_odr hidden void @_ZN16ZThreadLocalData6createEP6Thread(ptr noundef %0) #1 comdat align 2 {
  %2 = alloca ptr, align 8
  store ptr %0, ptr %2, align 8
  %3 = load ptr, ptr %2, align 8
  %4 = call noundef ptr @_ZN16ZThreadLocalData4dataEP6Thread(ptr noundef %3)
  call void @_ZN16ZThreadLocalDataC2Ev(ptr noundef nonnull align 8 dereferenceable(344) %4)
  ret void
}

; Function Attrs: mustprogress nounwind uwtable
define hidden void @_ZN11ZBarrierSet16on_thread_createEP6Thread(ptr noundef nonnull align 8 dereferenceable(64) %0, ptr noundef %1) unnamed_addr #1 align 2 {
  %3 = alloca ptr, align 8
  %4 = alloca ptr, align 8
  store ptr %0, ptr %3, align 8
  store ptr %1, ptr %4, align 8
  %5 = load ptr, ptr %4, align 8
  call void @_ZN16ZThreadLocalData6createEP6Thread(ptr noundef %5)
  ret void
}