; Function Attrs: mustprogress nounwind uwtable
define hidden void @_ZN11ZBarrierSet16on_thread_createEP6Thread(ptr nocapture nonnull readnone align 8 %0, ptr noundef %1) unnamed_addr #0 align 2 {
  %3 = getelementptr inbounds i8, ptr %1, i64 40
  %4 = getelementptr inbounds i8, ptr %1, i64 96
  tail call void @llvm.memset.p0.i64(ptr noundef nonnull align 8 dereferenceable(56) %3, i8 0, i64 56, i1 false)
  %5 = tail call noundef ptr @_Z12AllocateHeapm8MEMFLAGSN17AllocFailStrategy13AllocFailEnumE(i64 noundef 832, i8 noundef zeroext 5, i32 noundef 0) #7
  tail call void @_ZN19ZStoreBarrierBufferC1Ev(ptr noundef nonnull align 8 dereferenceable(832) %5) #7
  store ptr %5, ptr %4, align 8
  br label %6

6:                                                ; preds = %6, %2
  %.idx.i.i = phi i64 [ 64, %2 ], [ %.add.i.i, %6 ]
  %.ptr.i.i = getelementptr inbounds i8, ptr %3, i64 %.idx.i.i
  tail call void @_ZN22ZMarkThreadLocalStacksC1Ev(ptr noundef nonnull align 8 dereferenceable(136) %.ptr.i.i) #7
  %.add.i.i = add nuw nsw i64 %.idx.i.i, 136
  %7 = icmp eq i64 %.add.i.i, 336
  br i1 %7, label %_ZN16ZThreadLocalData6createEP6Thread.exit, label %6

_ZN16ZThreadLocalData6createEP6Thread.exit:       ; preds = %6
  %8 = getelementptr inbounds i8, ptr %1, i64 376
  store ptr null, ptr %8, align 8
  ret void
}